target datalayout = "e-m:e-p270:32:32-p271:32:32-p272:64:64-i64:64-i128:128-f80:128-n8:16:32:64-S128"
target triple = "x86_64-unknown-linux-gnu"

%struct.IDEBus = type { %struct.BusState, ptr, ptr, [2 x %struct.IDEState], ptr, i32, i32, ptr, i8, i8, ptr, i32, i8, i64, i32, %struct.PortioList, %struct.PortioList, ptr }
%struct.BusState = type { %struct.Object, ptr, ptr, ptr, i32, i8, i8, i32, %union.BusChildHead, %struct.BusStateEntry, %struct.ResettableState }
%struct.Object = type { ptr, ptr, ptr, i32, ptr }
%union.BusChildHead = type { %struct.QTailQLink }
%struct.QTailQLink = type { ptr, ptr }
%struct.BusStateEntry = type { ptr, ptr }
%struct.ResettableState = type { i32, i8, i8 }
%struct.IDEState = type { ptr, i8, i32, i32, i32, i32, i32, i32, i32, i64, i32, i32, [512 x i8], i32, [21 x i8], [41 x i8], i64, i8, i8, i32, i8, i8, i8, i8, i8, i8, i8, i8, i8, i8, i8, i8, i8, ptr, [9 x i8], %struct.unreported_events, i8, i8, i8, i8, i8, i32, i32, i32, i32, i32, i32, %struct.BlockAcctCookie, ptr, %struct.QEMUIOVector, %struct.anon.1, i64, i32, %struct.QEMUSGList, i32, ptr, ptr, ptr, ptr, i32, i32, i32, i8, ptr, i32, i8, i32, ptr, i32, i32, i8, i8, i32, i8, ptr, i32 }
%struct.unreported_events = type { i8, i8 }
%struct.BlockAcctCookie = type { i64, i64, i32 }
%struct.QEMUIOVector = type { ptr, i32, %union.anon }
%union.anon = type { %struct.anon }
%struct.anon = type { i32, %struct.iovec }
%struct.iovec = type { ptr, i64 }
%struct.anon.1 = type { ptr }
%struct.QEMUSGList = type { ptr, i32, i32, i64, ptr, ptr }
%struct.PortioList = type { ptr, ptr, ptr, i32, ptr, ptr, ptr, i8 }
%struct.DeviceState = type { %struct.Object, ptr, ptr, i8, i8, i64, ptr, i32, i8, ptr, %struct.NamedGPIOListHead, %struct.NamedClockListHead, %struct.BusStateHead, i32, i32, i32, %struct.ResettableState, ptr, %struct.MemReentrancyGuard }
%struct.NamedGPIOListHead = type { ptr }
%struct.NamedClockListHead = type { ptr }
%struct.BusStateHead = type { ptr }
%struct.MemReentrancyGuard = type { i8 }

@.str.7 = private unnamed_addr constant [6 x i8] c"%s@%x\00", align 1

; Function Attrs: nounwind sspstrong uwtable
define internal ptr @idebus_get_fw_dev_path(ptr noundef %dev) #0 {
entry:
  %dev.addr = alloca ptr, align 8
  %path = alloca [30 x i8], align 16
  store ptr %dev, ptr %dev.addr, align 8
  %arraydecay = getelementptr inbounds [30 x i8], ptr %path, i64 0, i64 0
  %0 = load ptr, ptr %dev.addr, align 8
  %call = call ptr @qdev_fw_name(ptr noundef %0)
  %1 = load ptr, ptr %dev.addr, align 8
  %parent_bus = getelementptr inbounds %struct.DeviceState, ptr %1, i32 0, i32 9
  %2 = load ptr, ptr %parent_bus, align 8
  %bus_id = getelementptr inbounds %struct.IDEBus, ptr %2, i32 0, i32 5
  %3 = load i32, ptr %bus_id, align 8
  %call1 = call i32 (ptr, i64, ptr, ...) @snprintf(ptr noundef %arraydecay, i64 noundef 30, ptr noundef @.str.7, ptr noundef %call, i32 noundef %3) #4
  %arraydecay2 = getelementptr inbounds [30 x i8], ptr %path, i64 0, i64 0
  %call3 = call noalias ptr @g_strdup(ptr noundef %arraydecay2)
  ret ptr %call3
}