; Function Attrs: nounwind sspstrong uwtable
define internal noalias ptr @idebus_get_fw_dev_path(ptr noundef %dev) #0 {
entry:
  %path = alloca [30 x i8], align 16
  %call = tail call ptr @qdev_fw_name(ptr noundef %dev) #6
  %parent_bus = getelementptr inbounds nuw i8, ptr %dev, i64 88
  %0 = load ptr, ptr %parent_bus, align 8
  %bus_id = getelementptr inbounds nuw i8, ptr %0, i64 2112
  %1 = load i32, ptr %bus_id, align 8
  %call1 = call i32 (ptr, i64, ptr, ...) @snprintf(ptr noundef nonnull dereferenceable(1) %path, i64 noundef 30, ptr noundef nonnull @.str.7, ptr noundef %call, i32 noundef %1) #6
  %call3 = call noalias ptr @g_strdup(ptr noundef nonnull %path) #6
  ret ptr %call3
}